; Function Attrs: mustprogress uwtable
define noundef i64 @_ZN4base8internal24GetProcStatsFieldAsSizeTERKSt6vectorINSt7__cxx1112basic_stringIcSt11char_traitsIcESaIcEEESaIS7_EENS0_15ProcStatsFieldsE(ptr noundef nonnull readonly align 8 captures(none) dereferenceable(24) %0, i32 noundef %1) local_unnamed_addr #0 personality ptr @__gxx_personality_v0 {
  %3 = alloca i64, align 8
  %4 = alloca i64, align 8
  %5 = alloca %"class.logging::LogMessage", align 8
  %6 = alloca i64, align 8
  %7 = alloca %"class.base::BasicStringPiece", align 8
  call void @llvm.lifetime.start.p0(i64 8, ptr nonnull %3) #18
  %8 = zext i32 %1 to i64
  store i64 %8, ptr %3, align 8, !tbaa !16
  call void @llvm.lifetime.start.p0(i64 8, ptr nonnull %4) #18
  %9 = getelementptr inbounds nuw i8, ptr %0, i64 8
  %10 = load ptr, ptr %9, align 8, !tbaa !23
  %11 = load ptr, ptr %0, align 8, !tbaa !20
  %12 = ptrtoint ptr %10 to i64
  %13 = ptrtoint ptr %11 to i64
  %14 = sub i64 %12, %13
  %15 = ashr exact i64 %14, 5
  store i64 %15, ptr %4, align 8, !tbaa !16
  %16 = icmp ugt i64 %15, %8
  br i1 %16, label %_ZN7logging11CheckLTImplImmEEPNSt7__cxx1112basic_stringIcSt11char_traitsIcESaIcEEERKT_RKT0_PKc.exit.thread, label %_ZN7logging11CheckLTImplImmEEPNSt7__cxx1112basic_stringIcSt11char_traitsIcESaIcEEERKT_RKT0_PKc.exit

_ZN7logging11CheckLTImplImmEEPNSt7__cxx1112basic_stringIcSt11char_traitsIcESaIcEEERKT_RKT0_PKc.exit.thread: ; preds = %2
  call void @llvm.lifetime.end.p0(i64 8, ptr nonnull %4) #18
  call void @llvm.lifetime.end.p0(i64 8, ptr nonnull %3) #18
  br label %19

_ZN7logging11CheckLTImplImmEEPNSt7__cxx1112basic_stringIcSt11char_traitsIcESaIcEEERKT_RKT0_PKc.exit: ; preds = %2
  %17 = call noundef ptr @_ZN7logging17MakeCheckOpStringImmEEPNSt7__cxx1112basic_stringIcSt11char_traitsIcESaIcEEERKT_RKT0_PKc(ptr noundef nonnull align 8 dereferenceable(8) %3, ptr noundef nonnull align 8 dereferenceable(8) %4, ptr noundef nonnull @.str.4)
  call void @llvm.lifetime.end.p0(i64 8, ptr nonnull %4) #18
  call void @llvm.lifetime.end.p0(i64 8, ptr nonnull %3) #18
  %.not.i3 = icmp eq ptr %17, null
  br i1 %.not.i3, label %19, label %18

18:                                               ; preds = %_ZN7logging11CheckLTImplImmEEPNSt7__cxx1112basic_stringIcSt11char_traitsIcESaIcEEERKT_RKT0_PKc.exit
  call void @llvm.lifetime.start.p0(i64 408, ptr nonnull %5) #18
  call void @_ZN7logging10LogMessageC1EPKciPNSt7__cxx1112basic_stringIcSt11char_traitsIcESaIcEEE(ptr noundef nonnull align 8 dereferenceable(404) %5, ptr noundef nonnull @.str.3, i32 noundef 130, ptr noundef nonnull %17)
  call void @_ZN7logging10LogMessageD1Ev(ptr noundef nonnull align 8 dereferenceable(404) %5) #18
  call void @llvm.lifetime.end.p0(i64 408, ptr nonnull %5) #18
  br label %19

19:                                               ; preds = %_ZN7logging11CheckLTImplImmEEPNSt7__cxx1112basic_stringIcSt11char_traitsIcESaIcEEERKT_RKT0_PKc.exit.thread, %_ZN7logging11CheckLTImplImmEEPNSt7__cxx1112basic_stringIcSt11char_traitsIcESaIcEEERKT_RKT0_PKc.exit, %18
  call void @llvm.lifetime.start.p0(i64 8, ptr nonnull %6) #18
  call void @llvm.lifetime.start.p0(i64 16, ptr nonnull %7) #18
  %20 = load ptr, ptr %0, align 8, !tbaa !20
  %21 = getelementptr inbounds nuw %"class.std::__cxx11::basic_string", ptr %20, i64 %8
  %22 = load ptr, ptr %21, align 8, !tbaa !3
  store ptr %22, ptr %7, align 8, !tbaa !17
  %23 = getelementptr inbounds nuw i8, ptr %7, i64 8
  %24 = getelementptr inbounds nuw i8, ptr %21, i64 8
  %25 = load i64, ptr %24, align 8, !tbaa !11
  store i64 %25, ptr %23, align 8, !tbaa !19
  %26 = call noundef zeroext i1 @_ZN4base13StringToSizeTERKNS_16BasicStringPieceINSt7__cxx1112basic_stringIcSt11char_traitsIcESaIcEEEEEPm(ptr noundef nonnull align 8 dereferenceable(16) %7, ptr noundef nonnull %6)
  %27 = load i64, ptr %6, align 8
  %28 = select i1 %26, i64 %27, i64 0
  call void @llvm.lifetime.end.p0(i64 16, ptr nonnull %7) #18
  call void @llvm.lifetime.end.p0(i64 8, ptr nonnull %6) #18
  ret i64 %28
}